; Function Attrs: nounwind uwtable
define dso_local range(i32 0, 2) i32 @zzlIsInLexRange(ptr noundef %0, ptr noundef readonly captures(none) %1) local_unnamed_addr #0 {
  %3 = load ptr, ptr %1, align 8, !tbaa !60
  %4 = getelementptr inbounds nuw i8, ptr %1, i64 8
  %5 = load ptr, ptr %4, align 8, !tbaa !68
  %6 = icmp eq ptr %3, %5
  br i1 %6, label %sdscmplex.exit.thread.thread26, label %7

7:                                                ; preds = %2
  %8 = load ptr, ptr getelementptr inbounds nuw (i8, ptr @shared, i64 81904), align 8, !tbaa !61
  %9 = icmp eq ptr %3, %8
  br i1 %9, label %sdscmplex.exit.thread.thread, label %10

10:                                               ; preds = %7
  %11 = load ptr, ptr getelementptr inbounds nuw (i8, ptr @shared, i64 81912), align 8, !tbaa !64
  %12 = icmp eq ptr %5, %11
  br i1 %12, label %sdscmplex.exit.thread.thread, label %13

13:                                               ; preds = %10
  %14 = icmp eq ptr %3, %11
  %15 = icmp eq ptr %5, %8
  %or.cond.i = or i1 %15, %14
  br i1 %or.cond.i, label %sdscmplex.exit.thread23, label %sdscmplex.exit

sdscmplex.exit:                                   ; preds = %13
  %16 = tail call i32 @sdscmp(ptr noundef %3, ptr noundef %5) #18
  %17 = icmp sgt i32 %16, 0
  br i1 %17, label %sdscmplex.exit.thread23, label %sdscmplex.exit.thread

sdscmplex.exit.thread:                            ; preds = %sdscmplex.exit
  %18 = icmp eq i32 %16, 0
  br i1 %18, label %sdscmplex.exit.thread.thread26, label %sdscmplex.exit.thread.thread

sdscmplex.exit.thread.thread26:                   ; preds = %2, %sdscmplex.exit.thread
  %19 = getelementptr inbounds nuw i8, ptr %1, i64 16
  %20 = load i32, ptr %19, align 8, !tbaa !58
  %.not = icmp eq i32 %20, 0
  br i1 %.not, label %21, label %sdscmplex.exit.thread23

21:                                               ; preds = %sdscmplex.exit.thread.thread26
  %22 = getelementptr inbounds nuw i8, ptr %1, i64 20
  %23 = load i32, ptr %22, align 4, !tbaa !67
  %.not17 = icmp eq i32 %23, 0
  br i1 %.not17, label %sdscmplex.exit.thread.thread, label %sdscmplex.exit.thread23

sdscmplex.exit.thread.thread:                     ; preds = %10, %7, %21, %sdscmplex.exit.thread
  %24 = tail call ptr @lpSeek(ptr noundef %0, i64 noundef -2) #18
  %25 = icmp eq ptr %24, null
  br i1 %25, label %sdscmplex.exit.thread23, label %26

26:                                               ; preds = %sdscmplex.exit.thread.thread
  %27 = tail call i32 @zzlLexValueGteMin(ptr noundef nonnull %24, ptr noundef nonnull %1)
  %.not18 = icmp eq i32 %27, 0
  br i1 %.not18, label %sdscmplex.exit.thread23, label %28

28:                                               ; preds = %26
  %29 = tail call ptr @lpSeek(ptr noundef %0, i64 noundef 0) #18
  %.not19 = icmp eq ptr %29, null
  br i1 %.not19, label %30, label %31, !prof !40

30:                                               ; preds = %28
  tail call void @_serverAssert(ptr noundef nonnull @.str.7, ptr noundef nonnull @.str.1, i32 noundef 993) #18
  tail call void @abort() #19
  unreachable

31:                                               ; preds = %28
  %32 = tail call i32 @zzlLexValueLteMax(ptr noundef nonnull %29, ptr noundef nonnull %1)
  br label %sdscmplex.exit.thread23

sdscmplex.exit.thread23:                          ; preds = %13, %31, %26, %sdscmplex.exit.thread.thread, %sdscmplex.exit, %sdscmplex.exit.thread.thread26, %21
  %.0 = phi i32 [ 0, %21 ], [ 0, %sdscmplex.exit.thread.thread26 ], [ 0, %sdscmplex.exit ], [ 0, %sdscmplex.exit.thread.thread ], [ 0, %26 ], [ %32, %31 ], [ 0, %13 ]
  ret i32 %.0
}